target datalayout = "e-m:e-p270:32:32-p271:32:32-p272:64:64-i64:64-i128:128-f80:128-n8:16:32:64-S128"
target triple = "x86_64-pc-linux-gnu"

%struct.Symbol = type { %union.anon, i64 }
%union.anon = type { i64 }

; Function Attrs: mustprogress nounwind uwtable
define linkonce_odr hidden void @_ZN6Symbol12set_code_lenEjj(ptr noundef nonnull align 8 dereferenceable(16) %0, i32 noundef %1, i32 noundef %2) #5 comdat align 2 {
  %4 = alloca ptr, align 8
  %5 = alloca i32, align 4
  %6 = alloca i32, align 4
  store ptr %0, ptr %4, align 8, !tbaa !8
  store i32 %1, ptr %5, align 4, !tbaa !3
  store i32 %2, ptr %6, align 4, !tbaa !3
  %7 = load ptr, ptr %4, align 8
  %8 = load i32, ptr %6, align 4, !tbaa !3
  %9 = shl i32 %8, 28
  %10 = load i32, ptr %5, align 4, !tbaa !3
  %11 = shl i32 %10, 16
  %12 = or i32 %9, %11
  %13 = load i32, ptr %6, align 4, !tbaa !3
  %14 = sub i32 8, %13
  %15 = mul i32 %14, 8
  %16 = or i32 %12, %15
  %17 = zext i32 %16 to i64
  %18 = getelementptr inbounds nuw %struct.Symbol, ptr %7, i32 0, i32 1
  store i64 %17, ptr %18, align 8, !tbaa !11
  ret void
}

; Function Attrs: mustprogress nounwind uwtable
define linkonce_odr hidden noundef i32 @_ZNK6Symbol6lengthEv(ptr noundef nonnull align 8 dereferenceable(16) %0) #5 comdat align 2 {
  %2 = alloca ptr, align 8
  store ptr %0, ptr %2, align 8, !tbaa !8
  %3 = load ptr, ptr %2, align 8
  %4 = getelementptr inbounds nuw %struct.Symbol, ptr %3, i32 0, i32 1
  %5 = load i64, ptr %4, align 8, !tbaa !11
  %6 = lshr i64 %5, 28
  %7 = trunc i64 %6 to i32
  ret i32 %7
}

; Function Attrs: mustprogress nounwind uwtable
define linkonce_odr hidden void @_ZN6SymbolC2Ev(ptr noundef nonnull align 8 dereferenceable(16) %0) unnamed_addr #5 comdat align 2 {
  %2 = alloca ptr, align 8
  store ptr %0, ptr %2, align 8, !tbaa !8
  %3 = load ptr, ptr %2, align 8
  %4 = getelementptr inbounds nuw %struct.Symbol, ptr %3, i32 0, i32 1
  store i64 0, ptr %4, align 8, !tbaa !11
  %5 = getelementptr inbounds nuw %struct.Symbol, ptr %3, i32 0, i32 0
  store i64 0, ptr %5, align 8, !tbaa !7
  ret void
}

; Function Attrs: mustprogress uwtable
define hidden { i64, i64 } @_Z6concat6SymbolS_(i64 %0, i64 %1, i64 %2, i64 %3) #4 {
  %5 = alloca %struct.Symbol, align 8
  %6 = alloca %struct.Symbol, align 8
  %7 = alloca %struct.Symbol, align 8
  %8 = alloca i32, align 4
  %9 = getelementptr inbounds nuw { i64, i64 }, ptr %6, i32 0, i32 0
  store i64 %0, ptr %9, align 8
  %10 = getelementptr inbounds nuw { i64, i64 }, ptr %6, i32 0, i32 1
  store i64 %1, ptr %10, align 8
  %11 = getelementptr inbounds nuw { i64, i64 }, ptr %7, i32 0, i32 0
  store i64 %2, ptr %11, align 8
  %12 = getelementptr inbounds nuw { i64, i64 }, ptr %7, i32 0, i32 1
  store i64 %3, ptr %12, align 8
  call void @_ZN6SymbolC2Ev(ptr noundef nonnull align 8 dereferenceable(16) %5)
  call void @llvm.lifetime.start.p0(i64 4, ptr %8) #3
  %13 = call noundef i32 @_ZNK6Symbol6lengthEv(ptr noundef nonnull align 8 dereferenceable(16) %6)
  %14 = call noundef i32 @_ZNK6Symbol6lengthEv(ptr noundef nonnull align 8 dereferenceable(16) %7)
  %15 = add i32 %13, %14
  store i32 %15, ptr %8, align 4, !tbaa !3
  %16 = load i32, ptr %8, align 4, !tbaa !3
  %17 = icmp ugt i32 %16, 8
  br i1 %17, label %18, label %19

18:                                               ; preds = %4
  store i32 8, ptr %8, align 4, !tbaa !3
  br label %19

19:                                               ; preds = %18, %4
  %20 = load i32, ptr %8, align 4, !tbaa !3
  call void @_ZN6Symbol12set_code_lenEjj(ptr noundef nonnull align 8 dereferenceable(16) %5, i32 noundef 511, i32 noundef %20)
  %21 = getelementptr inbounds nuw %struct.Symbol, ptr %7, i32 0, i32 0
  %22 = load i64, ptr %21, align 8, !tbaa !7
  %23 = call noundef i32 @_ZNK6Symbol6lengthEv(ptr noundef nonnull align 8 dereferenceable(16) %6)
  %24 = mul i32 8, %23
  %25 = zext i32 %24 to i64
  %26 = shl i64 %22, %25
  %27 = getelementptr inbounds nuw %struct.Symbol, ptr %6, i32 0, i32 0
  %28 = load i64, ptr %27, align 8, !tbaa !7
  %29 = or i64 %26, %28
  %30 = getelementptr inbounds nuw %struct.Symbol, ptr %5, i32 0, i32 0
  store i64 %29, ptr %30, align 8, !tbaa !7
  call void @llvm.lifetime.end.p0(i64 4, ptr %8) #3
  %31 = load { i64, i64 }, ptr %5, align 8
  ret { i64, i64 } %31
}