; Function Attrs: mustprogress nofree norecurse nosync nounwind willreturn memory(none) uwtable
define hidden { i64, i64 } @_Z6concat6SymbolS_(i64 %0, i64 %1, i64 %2, i64 %3) local_unnamed_addr #3 {
  %5 = lshr i64 %1, 28
  %6 = trunc i64 %5 to i32
  %7 = lshr i64 %3, 28
  %8 = trunc i64 %7 to i32
  %9 = add i32 %8, %6
  %spec.store.select = tail call i32 @llvm.umin.i32(i32 %9, i32 8)
  %reass.sub = mul nuw nsw i32 %spec.store.select, 268435448
  %10 = add nuw i32 %reass.sub, 33488960
  %11 = zext i32 %10 to i64
  %12 = shl nuw nsw i64 %5, 3
  %13 = and i64 %12, 4294967288
  %14 = shl i64 %2, %13
  %15 = or i64 %14, %0
  %.fca.0.insert = insertvalue { i64, i64 } poison, i64 %15, 0
  %.fca.1.insert = insertvalue { i64, i64 } %.fca.0.insert, i64 %11, 1
  ret { i64, i64 } %.fca.1.insert
}